target datalayout = "e-m:e-p270:32:32-p271:32:32-p272:64:64-i64:64-i128:128-f80:128-n8:16:32:64-S128"
target triple = "x86_64-pc-linux-gnu"

%struct.test_fixture = type { ptr, ptr, ptr, ptr, ptr, ptr, i32, ptr, ptr, ptr, i32, i32, i32 }
%struct.ossl_cmp_msg_st = type { ptr, ptr, ptr, ptr, ptr, ptr }

@ir_unprotected = internal global ptr null, align 8
@.str.14 = private unnamed_addr constant [35 x i8] c"../openssl/test/cmp_protect_test.c\00", align 1
@.str.75 = private unnamed_addr constant [48 x i8] c"fixture->msg = OSSL_CMP_MSG_dup(ir_unprotected)\00", align 1
@.str.79 = private unnamed_addr constant [18 x i8] c"fixture->expected\00", align 1
@.str.80 = private unnamed_addr constant [53 x i8] c"ossl_cmp_msg_protect(fixture->cmp_ctx, fixture->msg)\00", align 1
@test_MSG_protect_pbmac_no_sender.secret = internal global [4 x i8] c"/\0B\08\0F", align 1
@test_MSG_protect_pbmac_no_sender.ref = internal global [4 x i8] c"\CA\FE\BA\BE", align 1
@__func__.test_MSG_protect_pbmac_no_sender = private unnamed_addr constant [33 x i8] c"test_MSG_protect_pbmac_no_sender\00", align 1

; Function Attrs: inlinehint nounwind uwtable
define internal ptr @ossl_check_X509_sk_type(ptr noundef %0) #3 {
  %2 = alloca ptr, align 8
  store ptr %0, ptr %2, align 8, !tbaa !54
  %3 = load ptr, ptr %2, align 8, !tbaa !54
  ret ptr %3
}

; Function Attrs: nounwind uwtable
define internal i32 @execute_MSG_protect_test(ptr noundef %0) #0 {
  %2 = alloca ptr, align 8
  store ptr %0, ptr %2, align 8, !tbaa !19
  %3 = load ptr, ptr %2, align 8, !tbaa !19
  %4 = getelementptr inbounds nuw %struct.test_fixture, ptr %3, i32 0, i32 12
  %5 = load i32, ptr %4, align 8, !tbaa !43
  %6 = load ptr, ptr %2, align 8, !tbaa !19
  %7 = getelementptr inbounds nuw %struct.test_fixture, ptr %6, i32 0, i32 1
  %8 = load ptr, ptr %7, align 8, !tbaa !40
  %9 = load ptr, ptr %2, align 8, !tbaa !19
  %10 = getelementptr inbounds nuw %struct.test_fixture, ptr %9, i32 0, i32 2
  %11 = load ptr, ptr %10, align 8, !tbaa !23
  %12 = call i32 @ossl_cmp_msg_protect(ptr noundef %8, ptr noundef %11)
  %13 = call i32 @test_int_eq(ptr noundef @.str.14, i32 noundef 193, ptr noundef @.str.79, ptr noundef @.str.80, i32 noundef %5, i32 noundef %12)
  ret i32 %13
}

; Function Attrs: nounwind uwtable
define internal void @tear_down(ptr noundef %0) #0 {
  %2 = alloca ptr, align 8
  store ptr %0, ptr %2, align 8, !tbaa !19
  %3 = load ptr, ptr %2, align 8, !tbaa !19
  %4 = icmp ne ptr %3, null
  br i1 %4, label %5, label %27

5:                                                ; preds = %1
  %6 = load ptr, ptr %2, align 8, !tbaa !19
  %7 = getelementptr inbounds nuw %struct.test_fixture, ptr %6, i32 0, i32 1
  %8 = load ptr, ptr %7, align 8, !tbaa !40
  call void @OSSL_CMP_CTX_free(ptr noundef %8)
  %9 = load ptr, ptr %2, align 8, !tbaa !19
  %10 = getelementptr inbounds nuw %struct.test_fixture, ptr %9, i32 0, i32 2
  %11 = load ptr, ptr %10, align 8, !tbaa !23
  call void @OSSL_CMP_MSG_free(ptr noundef %11)
  %12 = load ptr, ptr %2, align 8, !tbaa !19
  %13 = getelementptr inbounds nuw %struct.test_fixture, ptr %12, i32 0, i32 3
  %14 = load ptr, ptr %13, align 8, !tbaa !51
  call void @OSSL_CMP_PKISI_free(ptr noundef %14)
  %15 = load ptr, ptr %2, align 8, !tbaa !19
  %16 = getelementptr inbounds nuw %struct.test_fixture, ptr %15, i32 0, i32 5
  %17 = load ptr, ptr %16, align 8, !tbaa !52
  call void @CRYPTO_free(ptr noundef %17, ptr noundef @.str.14, i32 noundef 46)
  %18 = load ptr, ptr %2, align 8, !tbaa !19
  %19 = getelementptr inbounds nuw %struct.test_fixture, ptr %18, i32 0, i32 8
  %20 = load ptr, ptr %19, align 8, !tbaa !47
  %21 = call ptr @ossl_check_X509_sk_type(ptr noundef %20)
  call void @OPENSSL_sk_free(ptr noundef %21)
  %22 = load ptr, ptr %2, align 8, !tbaa !19
  %23 = getelementptr inbounds nuw %struct.test_fixture, ptr %22, i32 0, i32 9
  %24 = load ptr, ptr %23, align 8, !tbaa !48
  %25 = call ptr @ossl_check_X509_sk_type(ptr noundef %24)
  call void @OPENSSL_sk_free(ptr noundef %25)
  %26 = load ptr, ptr %2, align 8, !tbaa !19
  call void @CRYPTO_free(ptr noundef %26, ptr noundef @.str.14, i32 noundef 50)
  br label %27

27:                                               ; preds = %5, %1
  ret void
}

; Function Attrs: nounwind uwtable
define internal i32 @test_MSG_protect_pbmac_no_sender(i32 noundef %0) #0 {
  %2 = alloca i32, align 4
  %3 = alloca i32, align 4
  %4 = alloca ptr, align 8
  %5 = alloca i32, align 4
  %6 = alloca i32, align 4
  store i32 %0, ptr %3, align 4, !tbaa !21
  call void @llvm.lifetime.start.p0(i64 8, ptr %4) #5
  %7 = call ptr @set_up(ptr noundef @__func__.test_MSG_protect_pbmac_no_sender)
  store ptr %7, ptr %4, align 8, !tbaa !19
  call void @llvm.lifetime.start.p0(i64 4, ptr %5) #5
  store i32 0, ptr %5, align 4, !tbaa !21
  %8 = load ptr, ptr %4, align 8, !tbaa !19
  %9 = icmp eq ptr %8, null
  br i1 %9, label %10, label %11

10:                                               ; preds = %1
  store i32 0, ptr %2, align 4
  store i32 1, ptr %6, align 4
  br label %61

11:                                               ; preds = %1
  %12 = load i32, ptr %3, align 4, !tbaa !21
  %13 = load ptr, ptr %4, align 8, !tbaa !19
  %14 = getelementptr inbounds nuw %struct.test_fixture, ptr %13, i32 0, i32 12
  store i32 %12, ptr %14, align 8, !tbaa !43
  %15 = load ptr, ptr @ir_unprotected, align 8, !tbaa !9
  %16 = call ptr @OSSL_CMP_MSG_dup(ptr noundef %15)
  %17 = load ptr, ptr %4, align 8, !tbaa !19
  %18 = getelementptr inbounds nuw %struct.test_fixture, ptr %17, i32 0, i32 2
  store ptr %16, ptr %18, align 8, !tbaa !23
  %19 = call i32 @test_ptr(ptr noundef @.str.14, i32 noundef 294, ptr noundef @.str.75, ptr noundef %16)
  %20 = icmp ne i32 %19, 0
  br i1 %20, label %21, label %50

21:                                               ; preds = %11
  %22 = load ptr, ptr %4, align 8, !tbaa !19
  %23 = getelementptr inbounds nuw %struct.test_fixture, ptr %22, i32 0, i32 1
  %24 = load ptr, ptr %23, align 8, !tbaa !40
  %25 = call i32 @OSSL_CMP_CTX_set_option(ptr noundef %24, i32 noundef 30, i32 noundef 0)
  %26 = icmp ne i32 %25, 0
  br i1 %26, label %27, label %50

27:                                               ; preds = %21
  %28 = load ptr, ptr %4, align 8, !tbaa !19
  %29 = getelementptr inbounds nuw %struct.test_fixture, ptr %28, i32 0, i32 2
  %30 = load ptr, ptr %29, align 8, !tbaa !23
  %31 = getelementptr inbounds nuw %struct.ossl_cmp_msg_st, ptr %30, i32 0, i32 0
  %32 = load ptr, ptr %31, align 8, !tbaa !28
  %33 = call i32 @ossl_cmp_hdr_set1_sender(ptr noundef %32, ptr noundef null)
  %34 = icmp ne i32 %33, 0
  br i1 %34, label %35, label %50

35:                                               ; preds = %27
  %36 = load ptr, ptr %4, align 8, !tbaa !19
  %37 = getelementptr inbounds nuw %struct.test_fixture, ptr %36, i32 0, i32 1
  %38 = load ptr, ptr %37, align 8, !tbaa !40
  %39 = call i32 @OSSL_CMP_CTX_set1_secretValue(ptr noundef %38, ptr noundef @test_MSG_protect_pbmac_no_sender.secret, i32 noundef 4)
  %40 = icmp ne i32 %39, 0
  br i1 %40, label %41, label %50

41:                                               ; preds = %35
  %42 = load ptr, ptr %4, align 8, !tbaa !19
  %43 = getelementptr inbounds nuw %struct.test_fixture, ptr %42, i32 0, i32 1
  %44 = load ptr, ptr %43, align 8, !tbaa !40
  %45 = load i32, ptr %3, align 4, !tbaa !21
  %46 = icmp ne i32 %45, 0
  %47 = select i1 %46, ptr @test_MSG_protect_pbmac_no_sender.ref, ptr null
  %48 = call i32 @OSSL_CMP_CTX_set1_referenceValue(ptr noundef %44, ptr noundef %47, i32 noundef 4)
  %49 = icmp ne i32 %48, 0
  br i1 %49, label %52, label %50

50:                                               ; preds = %41, %35, %27, %21, %11
  %51 = load ptr, ptr %4, align 8, !tbaa !19
  call void @tear_down(ptr noundef %51)
  store ptr null, ptr %4, align 8, !tbaa !19
  br label %52

52:                                               ; preds = %50, %41
  %53 = load ptr, ptr %4, align 8, !tbaa !19
  %54 = icmp ne ptr %53, null
  br i1 %54, label %55, label %59

55:                                               ; preds = %52
  %56 = load ptr, ptr %4, align 8, !tbaa !19
  %57 = call i32 @execute_MSG_protect_test(ptr noundef %56)
  store i32 %57, ptr %5, align 4, !tbaa !21
  %58 = load ptr, ptr %4, align 8, !tbaa !19
  call void @tear_down(ptr noundef %58)
  br label %59

59:                                               ; preds = %55, %52
  %60 = load i32, ptr %5, align 4, !tbaa !21
  store i32 %60, ptr %2, align 4
  store i32 1, ptr %6, align 4
  br label %61

61:                                               ; preds = %59, %10
  call void @llvm.lifetime.end.p0(i64 4, ptr %5) #5
  call void @llvm.lifetime.end.p0(i64 8, ptr %4) #5
  %62 = load i32, ptr %2, align 4
  ret i32 %62
}