; Function Attrs: nounwind uwtable
define internal fastcc i32 @test_MSG_protect_pbmac_no_sender(i32 noundef range(i32 0, 2) %0) unnamed_addr #0 {
  %2 = tail call fastcc ptr @set_up(ptr noundef nonnull @__func__.test_MSG_protect_pbmac_no_sender)
  %3 = icmp eq ptr %2, null
  br i1 %3, label %40, label %4

4:                                                ; preds = %1
  %5 = getelementptr inbounds nuw i8, ptr %2, i64 88
  store i32 %0, ptr %5, align 8, !tbaa !43
  %6 = load ptr, ptr @ir_unprotected, align 8, !tbaa !9
  %7 = tail call ptr @OSSL_CMP_MSG_dup(ptr noundef %6) #5
  %8 = getelementptr inbounds nuw i8, ptr %2, i64 16
  store ptr %7, ptr %8, align 8, !tbaa !19
  %9 = tail call i32 @test_ptr(ptr noundef nonnull @.str.14, i32 noundef 294, ptr noundef nonnull @.str.75, ptr noundef %7) #5
  %.not = icmp eq i32 %9, 0
  br i1 %.not, label %.thread, label %10

10:                                               ; preds = %4
  %11 = getelementptr inbounds nuw i8, ptr %2, i64 8
  %12 = load ptr, ptr %11, align 8, !tbaa !36
  %13 = tail call i32 @OSSL_CMP_CTX_set_option(ptr noundef %12, i32 noundef 30, i32 noundef 0) #5
  %.not17 = icmp eq i32 %13, 0
  br i1 %.not17, label %.thread, label %14

14:                                               ; preds = %10
  %15 = load ptr, ptr %8, align 8, !tbaa !19
  %16 = load ptr, ptr %15, align 8, !tbaa !25
  %17 = tail call i32 @ossl_cmp_hdr_set1_sender(ptr noundef %16, ptr noundef null) #5
  %.not18 = icmp eq i32 %17, 0
  br i1 %.not18, label %.thread, label %18

18:                                               ; preds = %14
  %19 = load ptr, ptr %11, align 8, !tbaa !36
  %20 = tail call i32 @OSSL_CMP_CTX_set1_secretValue(ptr noundef %19, ptr noundef nonnull @test_MSG_protect_pbmac_no_sender.secret, i32 noundef 4) #5
  %.not19 = icmp eq i32 %20, 0
  br i1 %.not19, label %.thread, label %21

21:                                               ; preds = %18
  %22 = load ptr, ptr %11, align 8, !tbaa !36
  %.not20 = icmp eq i32 %0, 0
  %23 = select i1 %.not20, ptr null, ptr @test_MSG_protect_pbmac_no_sender.ref
  %24 = tail call i32 @OSSL_CMP_CTX_set1_referenceValue(ptr noundef %22, ptr noundef %23, i32 noundef 4) #5
  %.not21 = icmp eq i32 %24, 0
  br i1 %.not21, label %.thread, label %tear_down.exit24

.thread:                                          ; preds = %4, %10, %14, %18, %21
  %25 = getelementptr inbounds nuw i8, ptr %2, i64 8
  br label %.sink.split

tear_down.exit24:                                 ; preds = %21
  %26 = load i32, ptr %5, align 8, !tbaa !43
  %27 = load ptr, ptr %11, align 8, !tbaa !36
  %28 = load ptr, ptr %8, align 8, !tbaa !19
  %29 = tail call i32 @ossl_cmp_msg_protect(ptr noundef %27, ptr noundef %28) #5
  %30 = tail call i32 @test_int_eq(ptr noundef nonnull @.str.14, i32 noundef 193, ptr noundef nonnull @.str.79, ptr noundef nonnull @.str.80, i32 noundef %26, i32 noundef %29) #5
  br label %.sink.split

.sink.split:                                      ; preds = %tear_down.exit24, %.thread
  %.sink.in = phi ptr [ %25, %.thread ], [ %11, %tear_down.exit24 ]
  %.015.ph = phi i32 [ 0, %.thread ], [ %30, %tear_down.exit24 ]
  %.sink = load ptr, ptr %.sink.in, align 8, !tbaa !36
  tail call void @OSSL_CMP_CTX_free(ptr noundef %.sink) #5
  %31 = load ptr, ptr %8, align 8, !tbaa !19
  tail call void @OSSL_CMP_MSG_free(ptr noundef %31) #5
  %32 = getelementptr inbounds nuw i8, ptr %2, i64 24
  %33 = load ptr, ptr %32, align 8, !tbaa !37
  tail call void @OSSL_CMP_PKISI_free(ptr noundef %33) #5
  %34 = getelementptr inbounds nuw i8, ptr %2, i64 40
  %35 = load ptr, ptr %34, align 8, !tbaa !38
  tail call void @CRYPTO_free(ptr noundef %35, ptr noundef nonnull @.str.14, i32 noundef 46) #5
  %36 = getelementptr inbounds nuw i8, ptr %2, i64 64
  %37 = load ptr, ptr %36, align 8, !tbaa !39
  tail call void @OPENSSL_sk_free(ptr noundef %37) #5
  %38 = getelementptr inbounds nuw i8, ptr %2, i64 72
  %39 = load ptr, ptr %38, align 8, !tbaa !40
  tail call void @OPENSSL_sk_free(ptr noundef %39) #5
  tail call void @CRYPTO_free(ptr noundef nonnull %2, ptr noundef nonnull @.str.14, i32 noundef 50) #5
  br label %40

40:                                               ; preds = %.sink.split, %1
  %.015 = phi i32 [ 0, %1 ], [ %.015.ph, %.sink.split ]
  ret i32 %.015
}